target datalayout = "e-m:e-p270:32:32-p271:32:32-p272:64:64-i64:64-i128:128-f80:128-n8:16:32:64-S128"
target triple = "x86_64-pc-linux-gnu"

%"struct.std::_Rb_tree_header" = type { %"struct.std::_Rb_tree_node_base", i64 }
%"struct.std::_Rb_tree_node_base" = type { i32, ptr, ptr, ptr }
%"class.std::__cxx11::basic_string" = type { %"struct.std::__cxx11::basic_string<char>::_Alloc_hider", i64, %union.anon.203 }
%"struct.std::__cxx11::basic_string<char>::_Alloc_hider" = type { ptr }
%union.anon.203 = type { i64, [8 x i8] }
%class.QString = type { ptr }
%"class.std::vector.5" = type { %"struct.std::_Vector_base.6" }
%"struct.std::_Vector_base.6" = type { %"struct.std::_Vector_base<vcg::Color4<unsigned char>, std::allocator<vcg::Color4<unsigned char>>>::_Vector_impl" }
%"struct.std::_Vector_base<vcg::Color4<unsigned char>, std::allocator<vcg::Color4<unsigned char>>>::_Vector_impl" = type { %"struct.std::_Vector_base<vcg::Color4<unsigned char>, std::allocator<vcg::Color4<unsigned char>>>::_Vector_impl_data" }
%"struct.std::_Vector_base<vcg::Color4<unsigned char>, std::allocator<vcg::Color4<unsigned char>>>::_Vector_impl_data" = type { ptr, ptr, ptr }
%"class.vcg::Color4" = type { %"class.vcg::Point4" }
%"class.vcg::Point4" = type { [4 x i8] }
%"class.vcg::Point3" = type { [3 x float] }
%class.PickPointsDialog = type { %class.QDockWidget, i32, %"class.Ui::pickpointsDialog", %"class.std::vector.16", ptr, ptr, i8, %class.QString, ptr, ptr, ptr, i32, ptr, %"class.vcg::Point3", %"class.vcg::Point3", i8, %class.QString }
%class.QDockWidget = type { %class.QWidget }
%class.QWidget = type { %class.QObject, %class.QPaintDevice, ptr }
%class.QObject = type { ptr, %class.QScopedPointer }
%class.QScopedPointer = type { ptr }
%class.QPaintDevice = type { ptr, i16, ptr }
%"class.Ui::pickpointsDialog" = type { %class.Ui_pickpointsDialog }
%class.Ui_pickpointsDialog = type { ptr, ptr, ptr, ptr, ptr, ptr, ptr, ptr, ptr, ptr, ptr, ptr, ptr, ptr, ptr, ptr, ptr, ptr, ptr, ptr, ptr, ptr, ptr, ptr, ptr, ptr, ptr, ptr, ptr, ptr, ptr, ptr, ptr, ptr }
%"class.std::vector.16" = type { %"struct.std::_Vector_base.17" }
%"struct.std::_Vector_base.17" = type { %"struct.std::_Vector_base<PickedPointTreeWidgetItem *, std::allocator<PickedPointTreeWidgetItem *>>::_Vector_impl" }
%"struct.std::_Vector_base<PickedPointTreeWidgetItem *, std::allocator<PickedPointTreeWidgetItem *>>::_Vector_impl" = type { %"struct.std::_Vector_base<PickedPointTreeWidgetItem *, std::allocator<PickedPointTreeWidgetItem *>>::_Vector_impl_data" }
%"struct.std::_Vector_base<PickedPointTreeWidgetItem *, std::allocator<PickedPointTreeWidgetItem *>>::_Vector_impl_data" = type { ptr, ptr, ptr }
%"class.vcg::Box3" = type { %"class.vcg::Point3", %"class.vcg::Point3" }
%"class.vcg::vertex::vector_ocf" = type <{ %"class.std::vector.55", %"class.std::vector.5", %"class.std::vector.60", %"class.std::vector.65", %"class.std::vector.70", %"class.std::vector.75", %"class.std::vector.80", %"class.std::vector.80", %"class.std::vector.85", %"class.std::vector.90", i8, i8, i8, i8, i8, i8, i8, i8, i8, [7 x i8] }>
%"class.std::vector.55" = type { %"struct.std::_Vector_base.56" }
%"struct.std::_Vector_base.56" = type { %"struct.std::_Vector_base<CVertexO, std::allocator<CVertexO>>::_Vector_impl" }
%"struct.std::_Vector_base<CVertexO, std::allocator<CVertexO>>::_Vector_impl" = type { %"struct.std::_Vector_base<CVertexO, std::allocator<CVertexO>>::_Vector_impl_data" }
%"struct.std::_Vector_base<CVertexO, std::allocator<CVertexO>>::_Vector_impl_data" = type { ptr, ptr, ptr }
%"class.std::vector.60" = type { %"struct.std::_Vector_base.61" }
%"struct.std::_Vector_base.61" = type { %"struct.std::_Vector_base<vcg::Point2<float>, std::allocator<vcg::Point2<float>>>::_Vector_impl" }
%"struct.std::_Vector_base<vcg::Point2<float>, std::allocator<vcg::Point2<float>>>::_Vector_impl" = type { %"struct.std::_Vector_base<vcg::Point2<float>, std::allocator<vcg::Point2<float>>>::_Vector_impl_data" }
%"struct.std::_Vector_base<vcg::Point2<float>, std::allocator<vcg::Point2<float>>>::_Vector_impl_data" = type { ptr, ptr, ptr }
%"class.std::vector.65" = type { %"struct.std::_Vector_base.66" }
%"struct.std::_Vector_base.66" = type { %"struct.std::_Vector_base<vcg::vertex::CurvatureDirTypeOcf<float>, std::allocator<vcg::vertex::CurvatureDirTypeOcf<float>>>::_Vector_impl" }
%"struct.std::_Vector_base<vcg::vertex::CurvatureDirTypeOcf<float>, std::allocator<vcg::vertex::CurvatureDirTypeOcf<float>>>::_Vector_impl" = type { %"struct.std::_Vector_base<vcg::vertex::CurvatureDirTypeOcf<float>, std::allocator<vcg::vertex::CurvatureDirTypeOcf<float>>>::_Vector_impl_data" }
%"struct.std::_Vector_base<vcg::vertex::CurvatureDirTypeOcf<float>, std::allocator<vcg::vertex::CurvatureDirTypeOcf<float>>>::_Vector_impl_data" = type { ptr, ptr, ptr }
%"class.std::vector.70" = type { %"struct.std::_Vector_base.71" }
%"struct.std::_Vector_base.71" = type { %"struct.std::_Vector_base<int, std::allocator<int>>::_Vector_impl" }
%"struct.std::_Vector_base<int, std::allocator<int>>::_Vector_impl" = type { %"struct.std::_Vector_base<int, std::allocator<int>>::_Vector_impl_data" }
%"struct.std::_Vector_base<int, std::allocator<int>>::_Vector_impl_data" = type { ptr, ptr, ptr }
%"class.std::vector.75" = type { %"struct.std::_Vector_base.76" }
%"struct.std::_Vector_base.76" = type { %"struct.std::_Vector_base<vcg::Point3<float>, std::allocator<vcg::Point3<float>>>::_Vector_impl" }
%"struct.std::_Vector_base<vcg::Point3<float>, std::allocator<vcg::Point3<float>>>::_Vector_impl" = type { %"struct.std::_Vector_base<vcg::Point3<float>, std::allocator<vcg::Point3<float>>>::_Vector_impl_data" }
%"struct.std::_Vector_base<vcg::Point3<float>, std::allocator<vcg::Point3<float>>>::_Vector_impl_data" = type { ptr, ptr, ptr }
%"class.std::vector.80" = type { %"struct.std::_Vector_base.81" }
%"struct.std::_Vector_base.81" = type { %"struct.std::_Vector_base<float, std::allocator<float>>::_Vector_impl" }
%"struct.std::_Vector_base<float, std::allocator<float>>::_Vector_impl" = type { %"struct.std::_Vector_base<float, std::allocator<float>>::_Vector_impl_data" }
%"struct.std::_Vector_base<float, std::allocator<float>>::_Vector_impl_data" = type { ptr, ptr, ptr }
%"class.std::vector.85" = type { %"struct.std::_Vector_base.86" }
%"struct.std::_Vector_base.86" = type { %"struct.std::_Vector_base<vcg::TexCoord2<>, std::allocator<vcg::TexCoord2<>>>::_Vector_impl" }
%"struct.std::_Vector_base<vcg::TexCoord2<>, std::allocator<vcg::TexCoord2<>>>::_Vector_impl" = type { %"struct.std::_Vector_base<vcg::TexCoord2<>, std::allocator<vcg::TexCoord2<>>>::_Vector_impl_data" }
%"struct.std::_Vector_base<vcg::TexCoord2<>, std::allocator<vcg::TexCoord2<>>>::_Vector_impl_data" = type { ptr, ptr, ptr }
%"class.std::vector.90" = type { %"struct.std::_Vector_base.91" }
%"struct.std::_Vector_base.91" = type { %"struct.std::_Vector_base<vcg::vertex::vector_ocf<CVertexO>::VFAdjType, std::allocator<vcg::vertex::vector_ocf<CVertexO>::VFAdjType>>::_Vector_impl" }
%"struct.std::_Vector_base<vcg::vertex::vector_ocf<CVertexO>::VFAdjType, std::allocator<vcg::vertex::vector_ocf<CVertexO>::VFAdjType>>::_Vector_impl" = type { %"struct.std::_Vector_base<vcg::vertex::vector_ocf<CVertexO>::VFAdjType, std::allocator<vcg::vertex::vector_ocf<CVertexO>::VFAdjType>>::_Vector_impl_data" }
%"struct.std::_Vector_base<vcg::vertex::vector_ocf<CVertexO>::VFAdjType, std::allocator<vcg::vertex::vector_ocf<CVertexO>::VFAdjType>>::_Vector_impl_data" = type { ptr, ptr, ptr }
%"class.std::vector.95" = type { %"struct.std::_Vector_base.96" }
%"struct.std::_Vector_base.96" = type { %"struct.std::_Vector_base<CEdgeO, std::allocator<CEdgeO>>::_Vector_impl" }
%"struct.std::_Vector_base<CEdgeO, std::allocator<CEdgeO>>::_Vector_impl" = type { %"struct.std::_Vector_base<CEdgeO, std::allocator<CEdgeO>>::_Vector_impl_data" }
%"struct.std::_Vector_base<CEdgeO, std::allocator<CEdgeO>>::_Vector_impl_data" = type { ptr, ptr, ptr }
%"class.vcg::face::vector_ocf" = type <{ %"class.std::vector.100", %"class.std::vector.5", %"class.std::vector.105", %"class.std::vector.70", %"class.std::vector.75", %"class.std::vector.80", %"class.std::vector.110", %"class.std::vector.115", %"class.std::vector.120", %"class.std::vector.125", %"class.std::vector.125", i8, i8, i8, i8, i8, i8, i8, i8, i8, i8, [6 x i8] }>
%"class.std::vector.100" = type { %"struct.std::_Vector_base.101" }
%"struct.std::_Vector_base.101" = type { %"struct.std::_Vector_base<CFaceO, std::allocator<CFaceO>>::_Vector_impl" }
%"struct.std::_Vector_base<CFaceO, std::allocator<CFaceO>>::_Vector_impl" = type { %"struct.std::_Vector_base<CFaceO, std::allocator<CFaceO>>::_Vector_impl_data" }
%"struct.std::_Vector_base<CFaceO, std::allocator<CFaceO>>::_Vector_impl_data" = type { ptr, ptr, ptr }
%"class.std::vector.105" = type { %"struct.std::_Vector_base.106" }
%"struct.std::_Vector_base.106" = type { %"struct.std::_Vector_base<vcg::face::CurvatureDirOcfBaseType<float>, std::allocator<vcg::face::CurvatureDirOcfBaseType<float>>>::_Vector_impl" }
%"struct.std::_Vector_base<vcg::face::CurvatureDirOcfBaseType<float>, std::allocator<vcg::face::CurvatureDirOcfBaseType<float>>>::_Vector_impl" = type { %"struct.std::_Vector_base<vcg::face::CurvatureDirOcfBaseType<float>, std::allocator<vcg::face::CurvatureDirOcfBaseType<float>>>::_Vector_impl_data" }
%"struct.std::_Vector_base<vcg::face::CurvatureDirOcfBaseType<float>, std::allocator<vcg::face::CurvatureDirOcfBaseType<float>>>::_Vector_impl_data" = type { ptr, ptr, ptr }
%"class.std::vector.110" = type { %"struct.std::_Vector_base.111" }
%"struct.std::_Vector_base.111" = type { %"struct.std::_Vector_base<vcg::face::vector_ocf<CFaceO>::WedgeColorTypePack, std::allocator<vcg::face::vector_ocf<CFaceO>::WedgeColorTypePack>>::_Vector_impl" }
%"struct.std::_Vector_base<vcg::face::vector_ocf<CFaceO>::WedgeColorTypePack, std::allocator<vcg::face::vector_ocf<CFaceO>::WedgeColorTypePack>>::_Vector_impl" = type { %"struct.std::_Vector_base<vcg::face::vector_ocf<CFaceO>::WedgeColorTypePack, std::allocator<vcg::face::vector_ocf<CFaceO>::WedgeColorTypePack>>::_Vector_impl_data" }
%"struct.std::_Vector_base<vcg::face::vector_ocf<CFaceO>::WedgeColorTypePack, std::allocator<vcg::face::vector_ocf<CFaceO>::WedgeColorTypePack>>::_Vector_impl_data" = type { ptr, ptr, ptr }
%"class.std::vector.115" = type { %"struct.std::_Vector_base.116" }
%"struct.std::_Vector_base.116" = type { %"struct.std::_Vector_base<vcg::face::vector_ocf<CFaceO>::WedgeNormalTypePack, std::allocator<vcg::face::vector_ocf<CFaceO>::WedgeNormalTypePack>>::_Vector_impl" }
%"struct.std::_Vector_base<vcg::face::vector_ocf<CFaceO>::WedgeNormalTypePack, std::allocator<vcg::face::vector_ocf<CFaceO>::WedgeNormalTypePack>>::_Vector_impl" = type { %"struct.std::_Vector_base<vcg::face::vector_ocf<CFaceO>::WedgeNormalTypePack, std::allocator<vcg::face::vector_ocf<CFaceO>::WedgeNormalTypePack>>::_Vector_impl_data" }
%"struct.std::_Vector_base<vcg::face::vector_ocf<CFaceO>::WedgeNormalTypePack, std::allocator<vcg::face::vector_ocf<CFaceO>::WedgeNormalTypePack>>::_Vector_impl_data" = type { ptr, ptr, ptr }
%"class.std::vector.120" = type { %"struct.std::_Vector_base.121" }
%"struct.std::_Vector_base.121" = type { %"struct.std::_Vector_base<vcg::face::vector_ocf<CFaceO>::WedgeTexTypePack, std::allocator<vcg::face::vector_ocf<CFaceO>::WedgeTexTypePack>>::_Vector_impl" }
%"struct.std::_Vector_base<vcg::face::vector_ocf<CFaceO>::WedgeTexTypePack, std::allocator<vcg::face::vector_ocf<CFaceO>::WedgeTexTypePack>>::_Vector_impl" = type { %"struct.std::_Vector_base<vcg::face::vector_ocf<CFaceO>::WedgeTexTypePack, std::allocator<vcg::face::vector_ocf<CFaceO>::WedgeTexTypePack>>::_Vector_impl_data" }
%"struct.std::_Vector_base<vcg::face::vector_ocf<CFaceO>::WedgeTexTypePack, std::allocator<vcg::face::vector_ocf<CFaceO>::WedgeTexTypePack>>::_Vector_impl_data" = type { ptr, ptr, ptr }
%"class.std::vector.125" = type { %"struct.std::_Vector_base.126" }
%"struct.std::_Vector_base.126" = type { %"struct.std::_Vector_base<vcg::face::vector_ocf<CFaceO>::AdjTypePack, std::allocator<vcg::face::vector_ocf<CFaceO>::AdjTypePack>>::_Vector_impl" }
%"struct.std::_Vector_base<vcg::face::vector_ocf<CFaceO>::AdjTypePack, std::allocator<vcg::face::vector_ocf<CFaceO>::AdjTypePack>>::_Vector_impl" = type { %"struct.std::_Vector_base<vcg::face::vector_ocf<CFaceO>::AdjTypePack, std::allocator<vcg::face::vector_ocf<CFaceO>::AdjTypePack>>::_Vector_impl_data" }
%"struct.std::_Vector_base<vcg::face::vector_ocf<CFaceO>::AdjTypePack, std::allocator<vcg::face::vector_ocf<CFaceO>::AdjTypePack>>::_Vector_impl_data" = type { ptr, ptr, ptr }
%"class.std::vector.130" = type { %"struct.std::_Vector_base.131" }
%"struct.std::_Vector_base.131" = type { %"struct.std::_Vector_base<vcg::HEdge<vcg::UsedTypes<vcg::Use<CVertexO>::AsVertexType, vcg::Use<CEdgeO>::AsEdgeType, vcg::Use<CFaceO>::AsFaceType>>, std::allocator<vcg::HEdge<vcg::UsedTypes<vcg::Use<CVertexO>::AsVertexType, vcg::Use<CEdgeO>::AsEdgeType, vcg::Use<CFaceO>::AsFaceType>>>>::_Vector_impl" }
%"struct.std::_Vector_base<vcg::HEdge<vcg::UsedTypes<vcg::Use<CVertexO>::AsVertexType, vcg::Use<CEdgeO>::AsEdgeType, vcg::Use<CFaceO>::AsFaceType>>, std::allocator<vcg::HEdge<vcg::UsedTypes<vcg::Use<CVertexO>::AsVertexType, vcg::Use<CEdgeO>::AsEdgeType, vcg::Use<CFaceO>::AsFaceType>>>>::_Vector_impl" = type { %"struct.std::_Vector_base<vcg::HEdge<vcg::UsedTypes<vcg::Use<CVertexO>::AsVertexType, vcg::Use<CEdgeO>::AsEdgeType, vcg::Use<CFaceO>::AsFaceType>>, std::allocator<vcg::HEdge<vcg::UsedTypes<vcg::Use<CVertexO>::AsVertexType, vcg::Use<CEdgeO>::AsEdgeType, vcg::Use<CFaceO>::AsFaceType>>>>::_Vector_impl_data" }
%"struct.std::_Vector_base<vcg::HEdge<vcg::UsedTypes<vcg::Use<CVertexO>::AsVertexType, vcg::Use<CEdgeO>::AsEdgeType, vcg::Use<CFaceO>::AsFaceType>>, std::allocator<vcg::HEdge<vcg::UsedTypes<vcg::Use<CVertexO>::AsVertexType, vcg::Use<CEdgeO>::AsEdgeType, vcg::Use<CFaceO>::AsFaceType>>>>::_Vector_impl_data" = type { ptr, ptr, ptr }
%"class.std::vector.135" = type { %"struct.std::_Vector_base.136" }
%"struct.std::_Vector_base.136" = type { %"struct.std::_Vector_base<vcg::TetraSimp<vcg::UsedTypes<vcg::Use<CVertexO>::AsVertexType, vcg::Use<CEdgeO>::AsEdgeType, vcg::Use<CFaceO>::AsFaceType>>, std::allocator<vcg::TetraSimp<vcg::UsedTypes<vcg::Use<CVertexO>::AsVertexType, vcg::Use<CEdgeO>::AsEdgeType, vcg::Use<CFaceO>::AsFaceType>>>>::_Vector_impl" }
%"struct.std::_Vector_base<vcg::TetraSimp<vcg::UsedTypes<vcg::Use<CVertexO>::AsVertexType, vcg::Use<CEdgeO>::AsEdgeType, vcg::Use<CFaceO>::AsFaceType>>, std::allocator<vcg::TetraSimp<vcg::UsedTypes<vcg::Use<CVertexO>::AsVertexType, vcg::Use<CEdgeO>::AsEdgeType, vcg::Use<CFaceO>::AsFaceType>>>>::_Vector_impl" = type { %"struct.std::_Vector_base<vcg::TetraSimp<vcg::UsedTypes<vcg::Use<CVertexO>::AsVertexType, vcg::Use<CEdgeO>::AsEdgeType, vcg::Use<CFaceO>::AsFaceType>>, std::allocator<vcg::TetraSimp<vcg::UsedTypes<vcg::Use<CVertexO>::AsVertexType, vcg::Use<CEdgeO>::AsEdgeType, vcg::Use<CFaceO>::AsFaceType>>>>::_Vector_impl_data" }
%"struct.std::_Vector_base<vcg::TetraSimp<vcg::UsedTypes<vcg::Use<CVertexO>::AsVertexType, vcg::Use<CEdgeO>::AsEdgeType, vcg::Use<CFaceO>::AsFaceType>>, std::allocator<vcg::TetraSimp<vcg::UsedTypes<vcg::Use<CVertexO>::AsVertexType, vcg::Use<CEdgeO>::AsEdgeType, vcg::Use<CFaceO>::AsFaceType>>>>::_Vector_impl_data" = type { ptr, ptr, ptr }
%"class.std::vector.140" = type { %"struct.std::_Vector_base.141" }
%"struct.std::_Vector_base.141" = type { %"struct.std::_Vector_base<std::__cxx11::basic_string<char>, std::allocator<std::__cxx11::basic_string<char>>>::_Vector_impl" }
%"struct.std::_Vector_base<std::__cxx11::basic_string<char>, std::allocator<std::__cxx11::basic_string<char>>>::_Vector_impl" = type { %"struct.std::_Vector_base<std::__cxx11::basic_string<char>, std::allocator<std::__cxx11::basic_string<char>>>::_Vector_impl_data" }
%"struct.std::_Vector_base<std::__cxx11::basic_string<char>, std::allocator<std::__cxx11::basic_string<char>>>::_Vector_impl_data" = type { ptr, ptr, ptr }
%"class.std::set" = type { %"class.std::_Rb_tree.145" }
%"class.std::_Rb_tree.145" = type { %"struct.std::_Rb_tree<vcg::PointerToAttribute, vcg::PointerToAttribute, std::_Identity<vcg::PointerToAttribute>, std::less<vcg::PointerToAttribute>>::_Rb_tree_impl" }
%"struct.std::_Rb_tree<vcg::PointerToAttribute, vcg::PointerToAttribute, std::_Identity<vcg::PointerToAttribute>, std::less<vcg::PointerToAttribute>>::_Rb_tree_impl" = type { %"struct.std::_Rb_tree_key_compare.149", %"struct.std::_Rb_tree_header" }
%"struct.std::_Rb_tree_key_compare.149" = type { %"struct.std::less.150" }
%"struct.std::less.150" = type { i8 }
%"class.vcg::Shot" = type { %"class.vcg::Camera", %"class.vcg::Shot<float>::ReferenceFrame" }
%"class.vcg::Camera" = type { float, %"class.vcg::Point2", %"class.vcg::Point2.152", %"class.vcg::Point2.152", %"class.vcg::Point2.152", %"struct.std::array", i32 }
%"class.vcg::Point2" = type { [2 x i32] }
%"class.vcg::Point2.152" = type { [2 x float] }
%"struct.std::array" = type { [4 x float] }
%"class.vcg::Shot<float>::ReferenceFrame" = type { %"class.vcg::Matrix44", %"class.vcg::Point3" }
%"class.vcg::Matrix44" = type { %"struct.std::array.153" }
%"struct.std::array.153" = type { [16 x float] }
%"class.vcg::tri::TriMesh<vcg::vertex::vector_ocf<CVertexO>, vcg::face::vector_ocf<CFaceO>>::PerMeshAttributeHandle" = type <{ ptr, i32, [4 x i8] }>
%class.MeshModel = type { %class.CMeshO, i32, i8, %class.QString, %class.QString, i32, i8, i32, %"class.std::map.154" }
%class.CMeshO = type { %"class.vcg::tri::TriMesh.base", i32, i32, i32, i32, %"class.vcg::Matrix44", [4 x i8] }
%"class.vcg::tri::TriMesh.base" = type <{ ptr, %"class.vcg::vertex::vector_ocf", i32, [4 x i8], %"class.std::vector.95", i32, [4 x i8], %"class.vcg::face::vector_ocf", i32, [4 x i8], %"class.std::vector.130", i32, [4 x i8], %"class.std::vector.135", i32, %"class.vcg::Box3", [4 x i8], %"class.std::vector.140", %"class.std::vector.140", i32, [4 x i8], %"class.std::set", %"class.std::set", %"class.std::set", %"class.std::set", %"class.std::set", %"class.vcg::Shot", %"class.vcg::Color4", i32 }>
%"class.std::map.154" = type { %"class.std::_Rb_tree.155" }
%"class.std::_Rb_tree.155" = type { %"struct.std::_Rb_tree<std::__cxx11::basic_string<char>, std::pair<const std::__cxx11::basic_string<char>, QImage>, std::_Select1st<std::pair<const std::__cxx11::basic_string<char>, QImage>>, std::less<std::__cxx11::basic_string<char>>>::_Rb_tree_impl" }
%"struct.std::_Rb_tree<std::__cxx11::basic_string<char>, std::pair<const std::__cxx11::basic_string<char>, QImage>, std::_Select1st<std::pair<const std::__cxx11::basic_string<char>, QImage>>, std::less<std::__cxx11::basic_string<char>>>::_Rb_tree_impl" = type { %"struct.std::_Rb_tree_key_compare.159", %"struct.std::_Rb_tree_header" }
%"struct.std::_Rb_tree_key_compare.159" = type { %"struct.std::less.160" }
%"struct.std::less.160" = type { i8 }

@_ZN12PickedPoints3KeyB5cxx11E = external global %"class.std::__cxx11::basic_string", align 8

; Function Attrs: mustprogress uwtable
define linkonce_odr noundef nonnull align 8 dereferenceable(8) ptr @_ZN3vcg3tri7TriMeshINS_6vertex10vector_ocfI8CVertexOEENS_4face10vector_ocfI6CFaceOEENS0_14DummyContainerESA_SA_E22PerMeshAttributeHandleIP12PickedPointsEclEv(ptr noundef nonnull align 8 dereferenceable(12) %0) #5 comdat align 2 {
  %2 = alloca ptr, align 8
  store ptr %0, ptr %2, align 8
  %3 = load ptr, ptr %2, align 8
  %4 = getelementptr inbounds %"class.vcg::tri::TriMesh<vcg::vertex::vector_ocf<CVertexO>, vcg::face::vector_ocf<CFaceO>>::PerMeshAttributeHandle", ptr %3, i32 0, i32 0
  %5 = load ptr, ptr %4, align 8
  %6 = load ptr, ptr %5, align 8
  %7 = getelementptr inbounds ptr, ptr %6, i64 5
  %8 = load ptr, ptr %7, align 8
  %9 = call noundef ptr %8(ptr noundef nonnull align 8 dereferenceable(16) %5)
  ret ptr %9
}

; Function Attrs: mustprogress uwtable
define void @_ZN16PickPointsDialog20savePointsToMetaDataEv(ptr noundef nonnull align 8 dereferenceable(464) %0) #5 align 2 personality ptr @__gxx_personality_v0 {
  %2 = alloca ptr, align 8
  %3 = alloca %"class.vcg::tri::TriMesh<vcg::vertex::vector_ocf<CVertexO>, vcg::face::vector_ocf<CFaceO>>::PerMeshAttributeHandle", align 8
  %4 = alloca %"class.std::__cxx11::basic_string", align 8
  %5 = alloca ptr, align 8
  %6 = alloca i32, align 4
  store ptr %0, ptr %2, align 8
  %7 = load ptr, ptr %2, align 8
  %8 = getelementptr inbounds %class.PickPointsDialog, ptr %7, i32 0, i32 8
  %9 = load ptr, ptr %8, align 8
  %10 = icmp ne ptr null, %9
  br i1 %10, label %11, label %27

11:                                               ; preds = %1
  %12 = getelementptr inbounds %class.PickPointsDialog, ptr %7, i32 0, i32 8
  %13 = load ptr, ptr %12, align 8
  %14 = getelementptr inbounds %class.MeshModel, ptr %13, i32 0, i32 0
  call void @_ZNSt7__cxx1112basic_stringIcSt11char_traitsIcESaIcEEC1ERKS4_(ptr noundef nonnull align 8 dereferenceable(32) %4, ptr noundef nonnull align 8 dereferenceable(32) @_ZN12PickedPoints3KeyB5cxx11E)
  %15 = invoke { ptr, i32 } @_ZN3vcg3tri9AllocatorI6CMeshOE19GetPerMeshAttributeIP12PickedPointsEENS0_7TriMeshINS_6vertex10vector_ocfI8CVertexOEENS_4face10vector_ocfI6CFaceOEENS0_14DummyContainerESG_SG_E22PerMeshAttributeHandleIT_EERS2_NSt7__cxx1112basic_stringIcSt11char_traitsIcESaIcEEE(ptr noundef nonnull align 8 dereferenceable(1196) %14, ptr noundef %4)
          to label %16 unwind label %23

16:                                               ; preds = %11
  %17 = getelementptr inbounds { ptr, i32 }, ptr %3, i32 0, i32 0
  %18 = extractvalue { ptr, i32 } %15, 0
  store ptr %18, ptr %17, align 8
  %19 = getelementptr inbounds { ptr, i32 }, ptr %3, i32 0, i32 1
  %20 = extractvalue { ptr, i32 } %15, 1
  store i32 %20, ptr %19, align 8
  call void @_ZNSt7__cxx1112basic_stringIcSt11char_traitsIcESaIcEED1Ev(ptr noundef nonnull align 8 dereferenceable(32) %4) #3
  %21 = call noundef ptr @_ZN16PickPointsDialog15getPickedPointsEv(ptr noundef nonnull align 8 dereferenceable(464) %7)
  %22 = call noundef nonnull align 8 dereferenceable(8) ptr @_ZN3vcg3tri7TriMeshINS_6vertex10vector_ocfI8CVertexOEENS_4face10vector_ocfI6CFaceOEENS0_14DummyContainerESA_SA_E22PerMeshAttributeHandleIP12PickedPointsEclEv(ptr noundef nonnull align 8 dereferenceable(12) %3)
  store ptr %21, ptr %22, align 8
  br label %27

23:                                               ; preds = %11
  %24 = landingpad { ptr, i32 }
          cleanup
  %25 = extractvalue { ptr, i32 } %24, 0
  store ptr %25, ptr %5, align 8
  %26 = extractvalue { ptr, i32 } %24, 1
  store i32 %26, ptr %6, align 4
  call void @_ZNSt7__cxx1112basic_stringIcSt11char_traitsIcESaIcEED1Ev(ptr noundef nonnull align 8 dereferenceable(32) %4) #3
  br label %28

27:                                               ; preds = %16, %1
  ret void

28:                                               ; preds = %23
  %29 = load ptr, ptr %5, align 8
  %30 = load i32, ptr %6, align 4
  %31 = insertvalue { ptr, i32 } poison, ptr %29, 0
  %32 = insertvalue { ptr, i32 } %31, i32 %30, 1
  resume { ptr, i32 } %32
}