; Function Attrs: mustprogress uwtable
define void @_ZN16PickPointsDialog20savePointsToMetaDataEv(ptr nocapture noundef nonnull readonly align 8 dereferenceable(464) %0) local_unnamed_addr #9 align 2 personality ptr @__gxx_personality_v0 {
  %2 = alloca %"class.std::__cxx11::basic_string", align 8
  %3 = getelementptr inbounds i8, ptr %0, i64 384
  %4 = load ptr, ptr %3, align 8
  %.not = icmp eq ptr %4, null
  br i1 %.not, label %16, label %5

5:                                                ; preds = %1
  call void @_ZNSt7__cxx1112basic_stringIcSt11char_traitsIcESaIcEEC1ERKS4_(ptr noundef nonnull align 8 dereferenceable(32) %2, ptr noundef nonnull align 8 dereferenceable(32) @_ZN12PickedPoints3KeyB5cxx11E)
  %6 = invoke { ptr, i32 } @_ZN3vcg3tri9AllocatorI6CMeshOE19GetPerMeshAttributeIP12PickedPointsEENS0_7TriMeshINS_6vertex10vector_ocfI8CVertexOEENS_4face10vector_ocfI6CFaceOEENS0_14DummyContainerESG_SG_E22PerMeshAttributeHandleIT_EERS2_NSt7__cxx1112basic_stringIcSt11char_traitsIcESaIcEEE(ptr noundef nonnull align 8 dereferenceable(1196) %4, ptr noundef nonnull %2)
          to label %7 unwind label %14

7:                                                ; preds = %5
  %8 = extractvalue { ptr, i32 } %6, 0
  call void @_ZNSt7__cxx1112basic_stringIcSt11char_traitsIcESaIcEED1Ev(ptr noundef nonnull align 8 dereferenceable(32) %2) #27
  %9 = call noundef ptr @_ZN16PickPointsDialog15getPickedPointsEv(ptr noundef nonnull align 8 dereferenceable(464) %0)
  %10 = load ptr, ptr %8, align 8
  %11 = getelementptr inbounds i8, ptr %10, i64 40
  %12 = load ptr, ptr %11, align 8
  %13 = call noundef nonnull align 8 dereferenceable(8) ptr %12(ptr noundef nonnull align 8 dereferenceable(16) %8)
  store ptr %9, ptr %13, align 8
  br label %16

14:                                               ; preds = %5
  %15 = landingpad { ptr, i32 }
          cleanup
  call void @_ZNSt7__cxx1112basic_stringIcSt11char_traitsIcESaIcEED1Ev(ptr noundef nonnull align 8 dereferenceable(32) %2) #27
  resume { ptr, i32 } %15

16:                                               ; preds = %7, %1
  ret void
}